target datalayout = "e-m:e-p270:32:32-p271:32:32-p272:64:64-i64:64-i128:128-f80:128-n8:16:32:64-S128"
target triple = "x86_64-pc-linux-gnu"

; Function Attrs: nounwind uwtable
define hidden i64 @mbedtls_mpi_core_mla(ptr noundef %0, i64 noundef %1, ptr noundef %2, i64 noundef %3, i64 noundef %4) #0 {
  %6 = alloca ptr, align 8
  %7 = alloca i64, align 8
  %8 = alloca ptr, align 8
  %9 = alloca i64, align 8
  %10 = alloca i64, align 8
  %11 = alloca i64, align 8
  %12 = alloca i64, align 8
  %13 = alloca i64, align 8
  %14 = alloca i64, align 8
  store ptr %0, ptr %6, align 8, !tbaa !7
  store i64 %1, ptr %7, align 8, !tbaa !3
  store ptr %2, ptr %8, align 8, !tbaa !7
  store i64 %3, ptr %9, align 8, !tbaa !3
  store i64 %4, ptr %10, align 8, !tbaa !3
  call void @llvm.lifetime.start.p0(i64 8, ptr %11) #7
  store i64 0, ptr %11, align 8, !tbaa !3
  %15 = load i64, ptr %7, align 8, !tbaa !3
  %16 = load i64, ptr %9, align 8, !tbaa !3
  %17 = icmp ult i64 %15, %16
  br i1 %17, label %18, label %20

18:                                               ; preds = %5
  %19 = load i64, ptr %7, align 8, !tbaa !3
  store i64 %19, ptr %9, align 8, !tbaa !3
  br label %20

20:                                               ; preds = %18, %5
  call void @llvm.lifetime.start.p0(i64 8, ptr %12) #7
  %21 = load i64, ptr %7, align 8, !tbaa !3
  %22 = load i64, ptr %9, align 8, !tbaa !3
  %23 = sub i64 %21, %22
  store i64 %23, ptr %12, align 8, !tbaa !3
  call void @llvm.lifetime.start.p0(i64 8, ptr %13) #7
  %24 = load i64, ptr %9, align 8, !tbaa !3
  %25 = udiv i64 %24, 8
  store i64 %25, ptr %13, align 8, !tbaa !3
  call void @llvm.lifetime.start.p0(i64 8, ptr %14) #7
  %26 = load i64, ptr %9, align 8, !tbaa !3
  %27 = and i64 %26, 7
  store i64 %27, ptr %14, align 8, !tbaa !3
  br label %28

28:                                               ; preds = %32, %20
  %29 = load i64, ptr %13, align 8, !tbaa !3
  %30 = add i64 %29, -1
  store i64 %30, ptr %13, align 8, !tbaa !3
  %31 = icmp ne i64 %29, 0
  br i1 %31, label %32, label %43

32:                                               ; preds = %28
  %33 = load i64, ptr %11, align 8, !tbaa !3
  %34 = load ptr, ptr %6, align 8, !tbaa !7
  %35 = load ptr, ptr %8, align 8, !tbaa !7
  %36 = load ptr, ptr %6, align 8, !tbaa !7
  %37 = load i64, ptr %10, align 8, !tbaa !3
  %38 = load ptr, ptr %8, align 8, !tbaa !7
  %39 = call { i64, ptr, ptr } asm "xorq   %r8, %r8\0Amovq   (%rsi), %rax\0Amulq   %rbx\0Aaddq   $$8, %rsi\0Aaddq   %rcx, %rax\0Amovq   %r8, %rcx\0Aadcq   $$0, %rdx\0Anop    \0Aaddq   %rax, (%rdi)\0Aadcq   %rdx, %rcx\0Aaddq   $$8, %rdi\0Amovq   (%rsi), %rax\0Amulq   %rbx\0Aaddq   $$8, %rsi\0Aaddq   %rcx, %rax\0Amovq   %r8, %rcx\0Aadcq   $$0, %rdx\0Anop    \0Aaddq   %rax, (%rdi)\0Aadcq   %rdx, %rcx\0Aaddq   $$8, %rdi\0Amovq   (%rsi), %rax\0Amulq   %rbx\0Aaddq   $$8, %rsi\0Aaddq   %rcx, %rax\0Amovq   %r8, %rcx\0Aadcq   $$0, %rdx\0Anop    \0Aaddq   %rax, (%rdi)\0Aadcq   %rdx, %rcx\0Aaddq   $$8, %rdi\0Amovq   (%rsi), %rax\0Amulq   %rbx\0Aaddq   $$8, %rsi\0Aaddq   %rcx, %rax\0Amovq   %r8, %rcx\0Aadcq   $$0, %rdx\0Anop    \0Aaddq   %rax, (%rdi)\0Aadcq   %rdx, %rcx\0Aaddq   $$8, %rdi\0Amovq   (%rsi), %rax\0Amulq   %rbx\0Aaddq   $$8, %rsi\0Aaddq   %rcx, %rax\0Amovq   %r8, %rcx\0Aadcq   $$0, %rdx\0Anop    \0Aaddq   %rax, (%rdi)\0Aadcq   %rdx, %rcx\0Aaddq   $$8, %rdi\0Amovq   (%rsi), %rax\0Amulq   %rbx\0Aaddq   $$8, %rsi\0Aaddq   %rcx, %rax\0Amovq   %r8, %rcx\0Aadcq   $$0, %rdx\0Anop    \0Aaddq   %rax, (%rdi)\0Aadcq   %rdx, %rcx\0Aaddq   $$8, %rdi\0Amovq   (%rsi), %rax\0Amulq   %rbx\0Aaddq   $$8, %rsi\0Aaddq   %rcx, %rax\0Amovq   %r8, %rcx\0Aadcq   $$0, %rdx\0Anop    \0Aaddq   %rax, (%rdi)\0Aadcq   %rdx, %rcx\0Aaddq   $$8, %rdi\0Amovq   (%rsi), %rax\0Amulq   %rbx\0Aaddq   $$8, %rsi\0Aaddq   %rcx, %rax\0Amovq   %r8, %rcx\0Aadcq   $$0, %rdx\0Anop    \0Aaddq   %rax, (%rdi)\0Aadcq   %rdx, %rcx\0Aaddq   $$8, %rdi\0A", "={cx},={di},={si},=*m,{bx},*m,0,1,2,*m,~{rax},~{rdx},~{r8},~{dirflag},~{fpsr},~{flags}"(ptr elementtype([16 x i64]) %36, i64 %37, ptr elementtype([16 x i64]) %38, i64 %33, ptr %34, ptr %35, ptr elementtype([16 x i64]) %36) #7, !srcloc !39
  %40 = extractvalue { i64, ptr, ptr } %39, 0
  %41 = extractvalue { i64, ptr, ptr } %39, 1
  %42 = extractvalue { i64, ptr, ptr } %39, 2
  store i64 %40, ptr %11, align 8, !tbaa !3
  store ptr %41, ptr %6, align 8, !tbaa !7
  store ptr %42, ptr %8, align 8, !tbaa !7
  br label %28, !llvm.loop !40

43:                                               ; preds = %28
  br label %44

44:                                               ; preds = %48, %43
  %45 = load i64, ptr %14, align 8, !tbaa !3
  %46 = add i64 %45, -1
  store i64 %46, ptr %14, align 8, !tbaa !3
  %47 = icmp ne i64 %45, 0
  br i1 %47, label %48, label %59

48:                                               ; preds = %44
  %49 = load i64, ptr %11, align 8, !tbaa !3
  %50 = load ptr, ptr %6, align 8, !tbaa !7
  %51 = load ptr, ptr %8, align 8, !tbaa !7
  %52 = load ptr, ptr %6, align 8, !tbaa !7
  %53 = load i64, ptr %10, align 8, !tbaa !3
  %54 = load ptr, ptr %8, align 8, !tbaa !7
  %55 = call { i64, ptr, ptr } asm "xorq   %r8, %r8\0Amovq   (%rsi), %rax\0Amulq   %rbx\0Aaddq   $$8, %rsi\0Aaddq   %rcx, %rax\0Amovq   %r8, %rcx\0Aadcq   $$0, %rdx\0Anop    \0Aaddq   %rax, (%rdi)\0Aadcq   %rdx, %rcx\0Aaddq   $$8, %rdi\0A", "={cx},={di},={si},=*m,{bx},*m,0,1,2,*m,~{rax},~{rdx},~{r8},~{dirflag},~{fpsr},~{flags}"(ptr elementtype([16 x i64]) %52, i64 %53, ptr elementtype([16 x i64]) %54, i64 %49, ptr %50, ptr %51, ptr elementtype([16 x i64]) %52) #7, !srcloc !41
  %56 = extractvalue { i64, ptr, ptr } %55, 0
  %57 = extractvalue { i64, ptr, ptr } %55, 1
  %58 = extractvalue { i64, ptr, ptr } %55, 2
  store i64 %56, ptr %11, align 8, !tbaa !3
  store ptr %57, ptr %6, align 8, !tbaa !7
  store ptr %58, ptr %8, align 8, !tbaa !7
  br label %44, !llvm.loop !42

59:                                               ; preds = %44
  br label %60

60:                                               ; preds = %64, %59
  %61 = load i64, ptr %12, align 8, !tbaa !3
  %62 = add i64 %61, -1
  store i64 %62, ptr %12, align 8, !tbaa !3
  %63 = icmp ne i64 %61, 0
  br i1 %63, label %64, label %77

64:                                               ; preds = %60
  %65 = load i64, ptr %11, align 8, !tbaa !3
  %66 = load ptr, ptr %6, align 8, !tbaa !7
  %67 = load i64, ptr %66, align 8, !tbaa !3
  %68 = add i64 %67, %65
  store i64 %68, ptr %66, align 8, !tbaa !3
  %69 = load ptr, ptr %6, align 8, !tbaa !7
  %70 = load i64, ptr %69, align 8, !tbaa !3
  %71 = load i64, ptr %11, align 8, !tbaa !3
  %72 = icmp ult i64 %70, %71
  %73 = zext i1 %72 to i32
  %74 = sext i32 %73 to i64
  store i64 %74, ptr %11, align 8, !tbaa !3
  %75 = load ptr, ptr %6, align 8, !tbaa !7
  %76 = getelementptr inbounds nuw i64, ptr %75, i32 1
  store ptr %76, ptr %6, align 8, !tbaa !7
  br label %60, !llvm.loop !43

77:                                               ; preds = %60
  %78 = load i64, ptr %11, align 8, !tbaa !3
  call void @llvm.lifetime.end.p0(i64 8, ptr %14) #7
  call void @llvm.lifetime.end.p0(i64 8, ptr %13) #7
  call void @llvm.lifetime.end.p0(i64 8, ptr %12) #7
  call void @llvm.lifetime.end.p0(i64 8, ptr %11) #7
  ret i64 %78
}