; Function Attrs: nounwind uwtable
define hidden i64 @mbedtls_mpi_core_mla(ptr noundef %0, i64 noundef %1, ptr noundef %2, i64 noundef %3, i64 noundef %4) local_unnamed_addr #5 {
  %spec.select = tail call i64 @llvm.umin.i64(i64 %1, i64 %3)
  %6 = sub i64 %1, %spec.select
  %7 = and i64 %spec.select, 7
  %.not41 = icmp ult i64 %spec.select, 8
  br i1 %.not41, label %.preheader40, label %.lr.ph.preheader

.lr.ph.preheader:                                 ; preds = %5
  %8 = lshr i64 %spec.select, 3
  br label %.lr.ph

.preheader40:                                     ; preds = %.lr.ph, %5
  %.034.lcssa = phi ptr [ %2, %5 ], [ %13, %.lr.ph ]
  %.030.lcssa = phi ptr [ %0, %5 ], [ %12, %.lr.ph ]
  %.029.lcssa = phi i64 [ 0, %5 ], [ %11, %.lr.ph ]
  %.not3848 = icmp eq i64 %7, 0
  br i1 %.not3848, label %.preheader, label %.lr.ph53

.lr.ph:                                           ; preds = %.lr.ph.preheader, %.lr.ph
  %.02745 = phi i64 [ %9, %.lr.ph ], [ %8, %.lr.ph.preheader ]
  %.02944 = phi i64 [ %11, %.lr.ph ], [ 0, %.lr.ph.preheader ]
  %.03043 = phi ptr [ %12, %.lr.ph ], [ %0, %.lr.ph.preheader ]
  %.03442 = phi ptr [ %13, %.lr.ph ], [ %2, %.lr.ph.preheader ]
  %9 = add nsw i64 %.02745, -1
  %10 = tail call { i64, ptr, ptr } asm "xorq   %r8, %r8\0Amovq   (%rsi), %rax\0Amulq   %rbx\0Aaddq   $$8, %rsi\0Aaddq   %rcx, %rax\0Amovq   %r8, %rcx\0Aadcq   $$0, %rdx\0Anop    \0Aaddq   %rax, (%rdi)\0Aadcq   %rdx, %rcx\0Aaddq   $$8, %rdi\0Amovq   (%rsi), %rax\0Amulq   %rbx\0Aaddq   $$8, %rsi\0Aaddq   %rcx, %rax\0Amovq   %r8, %rcx\0Aadcq   $$0, %rdx\0Anop    \0Aaddq   %rax, (%rdi)\0Aadcq   %rdx, %rcx\0Aaddq   $$8, %rdi\0Amovq   (%rsi), %rax\0Amulq   %rbx\0Aaddq   $$8, %rsi\0Aaddq   %rcx, %rax\0Amovq   %r8, %rcx\0Aadcq   $$0, %rdx\0Anop    \0Aaddq   %rax, (%rdi)\0Aadcq   %rdx, %rcx\0Aaddq   $$8, %rdi\0Amovq   (%rsi), %rax\0Amulq   %rbx\0Aaddq   $$8, %rsi\0Aaddq   %rcx, %rax\0Amovq   %r8, %rcx\0Aadcq   $$0, %rdx\0Anop    \0Aaddq   %rax, (%rdi)\0Aadcq   %rdx, %rcx\0Aaddq   $$8, %rdi\0Amovq   (%rsi), %rax\0Amulq   %rbx\0Aaddq   $$8, %rsi\0Aaddq   %rcx, %rax\0Amovq   %r8, %rcx\0Aadcq   $$0, %rdx\0Anop    \0Aaddq   %rax, (%rdi)\0Aadcq   %rdx, %rcx\0Aaddq   $$8, %rdi\0Amovq   (%rsi), %rax\0Amulq   %rbx\0Aaddq   $$8, %rsi\0Aaddq   %rcx, %rax\0Amovq   %r8, %rcx\0Aadcq   $$0, %rdx\0Anop    \0Aaddq   %rax, (%rdi)\0Aadcq   %rdx, %rcx\0Aaddq   $$8, %rdi\0Amovq   (%rsi), %rax\0Amulq   %rbx\0Aaddq   $$8, %rsi\0Aaddq   %rcx, %rax\0Amovq   %r8, %rcx\0Aadcq   $$0, %rdx\0Anop    \0Aaddq   %rax, (%rdi)\0Aadcq   %rdx, %rcx\0Aaddq   $$8, %rdi\0Amovq   (%rsi), %rax\0Amulq   %rbx\0Aaddq   $$8, %rsi\0Aaddq   %rcx, %rax\0Amovq   %r8, %rcx\0Aadcq   $$0, %rdx\0Anop    \0Aaddq   %rax, (%rdi)\0Aadcq   %rdx, %rcx\0Aaddq   $$8, %rdi\0A", "={cx},={di},={si},=*m,{bx},*m,0,1,2,*m,~{rax},~{rdx},~{r8},~{dirflag},~{fpsr},~{flags}"(ptr elementtype([16 x i64]) %.03043, i64 %4, ptr elementtype([16 x i64]) %.03442, i64 %.02944, ptr %.03043, ptr %.03442, ptr elementtype([16 x i64]) %.03043) #10, !srcloc !31
  %11 = extractvalue { i64, ptr, ptr } %10, 0
  %12 = extractvalue { i64, ptr, ptr } %10, 1
  %13 = extractvalue { i64, ptr, ptr } %10, 2
  %.not = icmp eq i64 %9, 0
  br i1 %.not, label %.preheader40, label %.lr.ph, !llvm.loop !32

.preheader:                                       ; preds = %.lr.ph53, %.preheader40
  %.131.lcssa = phi ptr [ %.030.lcssa, %.preheader40 ], [ %17, %.lr.ph53 ]
  %.1.lcssa = phi i64 [ %.029.lcssa, %.preheader40 ], [ %16, %.lr.ph53 ]
  %.not3956 = icmp eq i64 %6, 0
  br i1 %.not3956, label %._crit_edge, label %.lr.ph60

.lr.ph53:                                         ; preds = %.preheader40, %.lr.ph53
  %.052 = phi i64 [ %14, %.lr.ph53 ], [ %7, %.preheader40 ]
  %.151 = phi i64 [ %16, %.lr.ph53 ], [ %.029.lcssa, %.preheader40 ]
  %.13150 = phi ptr [ %17, %.lr.ph53 ], [ %.030.lcssa, %.preheader40 ]
  %.13549 = phi ptr [ %18, %.lr.ph53 ], [ %.034.lcssa, %.preheader40 ]
  %14 = add nsw i64 %.052, -1
  %15 = tail call { i64, ptr, ptr } asm "xorq   %r8, %r8\0Amovq   (%rsi), %rax\0Amulq   %rbx\0Aaddq   $$8, %rsi\0Aaddq   %rcx, %rax\0Amovq   %r8, %rcx\0Aadcq   $$0, %rdx\0Anop    \0Aaddq   %rax, (%rdi)\0Aadcq   %rdx, %rcx\0Aaddq   $$8, %rdi\0A", "={cx},={di},={si},=*m,{bx},*m,0,1,2,*m,~{rax},~{rdx},~{r8},~{dirflag},~{fpsr},~{flags}"(ptr elementtype([16 x i64]) %.13150, i64 %4, ptr elementtype([16 x i64]) %.13549, i64 %.151, ptr %.13150, ptr %.13549, ptr elementtype([16 x i64]) %.13150) #10, !srcloc !33
  %16 = extractvalue { i64, ptr, ptr } %15, 0
  %17 = extractvalue { i64, ptr, ptr } %15, 1
  %18 = extractvalue { i64, ptr, ptr } %15, 2
  %.not38 = icmp eq i64 %14, 0
  br i1 %.not38, label %.preheader, label %.lr.ph53, !llvm.loop !34

.lr.ph60:                                         ; preds = %.preheader, %.lr.ph60
  %.02859 = phi i64 [ %19, %.lr.ph60 ], [ %6, %.preheader ]
  %.258 = phi i64 [ %23, %.lr.ph60 ], [ %.1.lcssa, %.preheader ]
  %.23257 = phi ptr [ %24, %.lr.ph60 ], [ %.131.lcssa, %.preheader ]
  %19 = add i64 %.02859, -1
  %20 = load i64, ptr %.23257, align 8, !tbaa !3
  %21 = add i64 %20, %.258
  store i64 %21, ptr %.23257, align 8, !tbaa !3
  %22 = icmp ult i64 %21, %.258
  %23 = zext i1 %22 to i64
  %24 = getelementptr inbounds nuw i8, ptr %.23257, i64 8
  %.not39 = icmp eq i64 %19, 0
  br i1 %.not39, label %._crit_edge, label %.lr.ph60, !llvm.loop !35

._crit_edge:                                      ; preds = %.lr.ph60, %.preheader
  %.2.lcssa = phi i64 [ %.1.lcssa, %.preheader ], [ %23, %.lr.ph60 ]
  ret i64 %.2.lcssa
}